target datalayout = "e-m:e-p270:32:32-p271:32:32-p272:64:64-i64:64-i128:128-f80:128-n8:16:32:64-S128"
target triple = "x86_64-pc-linux-gnu"

%struct._object = type { i64, ptr }
%"class.nanobind::handle" = type { ptr }
%struct.Buffer = type { [30 x i32] }
%class.anon.1432 = type { i8 }
%"struct.nanobind::detail::tuple.1434" = type { %"struct.nanobind::detail::type_caster.1435" }
%"struct.nanobind::detail::type_caster.1435" = type { %"struct.nanobind::pointer_and_handle" }
%"struct.nanobind::pointer_and_handle" = type { ptr, %"class.nanobind::handle" }
%"struct.nanobind::detail::type_caster.1436" = type { %"struct.nanobind::detail::type_caster_base" }
%"struct.nanobind::detail::type_caster_base" = type { ptr }

@_Py_NoneStruct = external global %struct._object, align 8
@_ZTIZL28nanobind_init_test_eigen_extRN8nanobind7module_EE6Buffer = internal constant { ptr, ptr } { ptr getelementptr inbounds (ptr, ptr @_ZTVN10__cxxabiv117__class_type_infoE, i64 2), ptr @_ZTSZL28nanobind_init_test_eigen_extRN8nanobind7module_EE6Buffer }, align 8

; Function Attrs: mustprogress nounwind optsize uwtable
define linkonce_odr hidden void @_ZN8nanobind6handleC2Ev(ptr noundef nonnull align 8 dereferenceable(8) %0) unnamed_addr #1 comdat align 2 {
  %2 = alloca ptr, align 8
  store ptr %0, ptr %2, align 8, !tbaa !20
  %3 = load ptr, ptr %2, align 8
  %4 = getelementptr inbounds nuw %"class.nanobind::handle", ptr %3, i32 0, i32 0
  store ptr null, ptr %4, align 8, !tbaa !22
  ret void
}

; Function Attrs: alwaysinline mustprogress nounwind optsize uwtable
define linkonce_odr hidden noundef ptr @_ZNK8nanobind6handle3ptrEv(ptr noundef nonnull align 8 dereferenceable(8) %0) #7 comdat align 2 {
  %2 = alloca ptr, align 8
  store ptr %0, ptr %2, align 8, !tbaa !20
  %3 = load ptr, ptr %2, align 8
  %4 = getelementptr inbounds nuw %"class.nanobind::handle", ptr %3, i32 0, i32 0
  %5 = load ptr, ptr %4, align 8, !tbaa !22
  ret ptr %5
}

; Function Attrs: inlinehint mustprogress nounwind optsize uwtable
define internal void @_ZN8nanobind18pointer_and_handleIZL28nanobind_init_test_eigen_extRNS_7module_EE6BufferEC2Ev(ptr noundef nonnull align 8 dereferenceable(16) %0) unnamed_addr #11 align 2 {
  %2 = alloca ptr, align 8
  store ptr %0, ptr %2, align 8, !tbaa !2844
  %3 = load ptr, ptr %2, align 8
  %4 = getelementptr inbounds nuw %"struct.nanobind::pointer_and_handle", ptr %3, i32 0, i32 1
  call void @_ZN8nanobind6handleC2Ev(ptr noundef nonnull align 8 dereferenceable(8) %4) #26
  ret void
}

; Function Attrs: noinline noreturn nounwind optsize uwtable
define linkonce_odr hidden void @__clang_call_terminate(ptr noundef %0) #9 comdat {
  %2 = call ptr @__cxa_begin_catch(ptr %0) #25
  call void @_ZSt9terminatev() #27
  unreachable
}

; Function Attrs: mustprogress nounwind optsize uwtable
define internal noundef ptr @_ZN8nanobind6detail16type_caster_baseIZL28nanobind_init_test_eigen_extRNS_7module_EE6BufferEcvPS4_Ev(ptr noundef nonnull align 8 dereferenceable(8) %0) #1 align 2 {
  %2 = alloca ptr, align 8
  store ptr %0, ptr %2, align 8, !tbaa !2846
  %3 = load ptr, ptr %2, align 8
  %4 = getelementptr inbounds nuw %"struct.nanobind::detail::type_caster_base", ptr %3, i32 0, i32 0
  %5 = load ptr, ptr %4, align 8, !tbaa !2848
  ret ptr %5
}

; Function Attrs: mustprogress nounwind optsize uwtable
define internal noundef zeroext i1 @_ZNK8nanobind6detail16type_caster_baseIZL28nanobind_init_test_eigen_extRNS_7module_EE6BufferE8can_castIPS4_EEbv(ptr noundef nonnull align 8 dereferenceable(8) %0) #1 align 2 {
  %2 = alloca ptr, align 8
  store ptr %0, ptr %2, align 8, !tbaa !2846
  ret i1 true
}

; Function Attrs: alwaysinline mustprogress nounwind optsize uwtable
define internal noundef zeroext i1 @_ZN8nanobind6detail16type_caster_baseIZL28nanobind_init_test_eigen_extRNS_7module_EE6BufferE11from_pythonENS_6handleEhPNS0_12cleanup_listE(ptr noundef nonnull align 8 dereferenceable(8) %0, ptr %1, i8 noundef zeroext %2, ptr noundef %3) #7 align 2 {
  %5 = alloca %"class.nanobind::handle", align 8
  %6 = alloca ptr, align 8
  %7 = alloca i8, align 1
  %8 = alloca ptr, align 8
  %9 = getelementptr inbounds nuw %"class.nanobind::handle", ptr %5, i32 0, i32 0
  store ptr %1, ptr %9, align 8
  store ptr %0, ptr %6, align 8, !tbaa !2846
  store i8 %2, ptr %7, align 1, !tbaa !30
  store ptr %3, ptr %8, align 8, !tbaa !143
  %10 = load ptr, ptr %6, align 8
  %11 = call noundef ptr @_ZNK8nanobind6handle3ptrEv(ptr noundef nonnull align 8 dereferenceable(8) %5) #24
  %12 = load i8, ptr %7, align 1, !tbaa !30
  %13 = load ptr, ptr %8, align 8, !tbaa !143
  %14 = getelementptr inbounds nuw %"struct.nanobind::detail::type_caster_base", ptr %10, i32 0, i32 0
  %15 = call noundef zeroext i1 @_ZN8nanobind6detail11nb_type_getEPKSt9type_infoP7_objecthPNS0_12cleanup_listEPPv(ptr noundef @_ZTIZL28nanobind_init_test_eigen_extRN8nanobind7module_EE6Buffer, ptr noundef %11, i8 noundef zeroext %12, ptr noundef %13, ptr noundef %14) #26
  ret i1 %15
}

; Function Attrs: alwaysinline mustprogress nounwind optsize uwtable
define internal noundef zeroext i8 @_ZN8nanobind6detail22flags_for_local_casterIPZL28nanobind_init_test_eigen_extRNS_7module_EE6BufferEEhh(i8 noundef zeroext %0) #7 {
  %2 = alloca i8, align 1
  %3 = alloca i8, align 1
  store i8 %0, ptr %2, align 1, !tbaa !30
  call void @llvm.lifetime.start.p0(i64 1, ptr %3) #25
  store i8 1, ptr %3, align 1, !tbaa !45
  %4 = load i8, ptr %2, align 1, !tbaa !30
  %5 = zext i8 %4 to i32
  %6 = and i32 %5, 8
  %7 = icmp ne i32 %6, 0
  br i1 %7, label %8, label %13

8:                                                ; preds = %1
  %9 = load i8, ptr %2, align 1, !tbaa !30
  %10 = zext i8 %9 to i32
  %11 = and i32 %10, -2
  %12 = trunc i32 %11 to i8
  store i8 %12, ptr %2, align 1, !tbaa !30
  br label %13

13:                                               ; preds = %8, %1
  %14 = load i8, ptr %2, align 1, !tbaa !30
  call void @llvm.lifetime.end.p0(i64 1, ptr %3) #25
  ret i8 %14
}

; Function Attrs: inlinehint mustprogress nounwind optsize uwtable
define internal void @_ZN8nanobind6detail11type_casterINS_18pointer_and_handleIZL28nanobind_init_test_eigen_extRNS_7module_EE6BufferEEiEC2Ev(ptr noundef nonnull align 8 dereferenceable(16) %0) unnamed_addr #11 align 2 {
  %2 = alloca ptr, align 8
  store ptr %0, ptr %2, align 8, !tbaa !2838
  %3 = load ptr, ptr %2, align 8
  %4 = getelementptr inbounds nuw %"struct.nanobind::detail::type_caster.1435", ptr %3, i32 0, i32 0
  call void @_ZN8nanobind18pointer_and_handleIZL28nanobind_init_test_eigen_extRNS_7module_EE6BufferEC2Ev(ptr noundef nonnull align 8 dereferenceable(16) %4) #26
  ret void
}

; Function Attrs: inlinehint mustprogress nounwind optsize uwtable
define internal void @_ZL10_Py_INCREFP7_object(ptr noundef %0) #11 {
  %2 = alloca ptr, align 8
  store ptr %0, ptr %2, align 8, !tbaa !14
  %3 = load ptr, ptr %2, align 8, !tbaa !14
  %4 = getelementptr inbounds nuw %struct._object, ptr %3, i32 0, i32 0
  %5 = load i64, ptr %4, align 8, !tbaa !35
  %6 = add nsw i64 %5, 1
  store i64 %6, ptr %4, align 8, !tbaa !35
  ret void
}

; Function Attrs: inlinehint mustprogress nounwind optsize uwtable
define internal void @_ZZN8nanobind4initIJEE7executeINS_6class_IZL28nanobind_init_test_eigen_extRNS_7module_EE6BufferJEEEJEEEvRT_DpRKT0_ENKUlNS_18pointer_and_handleIS6_EEE_clESF_(ptr noundef nonnull align 1 dereferenceable(1) %0, ptr %1, ptr %2) #11 align 2 {
  %4 = alloca %"struct.nanobind::pointer_and_handle", align 8
  %5 = alloca ptr, align 8
  %6 = getelementptr inbounds nuw { ptr, ptr }, ptr %4, i32 0, i32 0
  store ptr %1, ptr %6, align 8
  %7 = getelementptr inbounds nuw { ptr, ptr }, ptr %4, i32 0, i32 1
  store ptr %2, ptr %7, align 8
  store ptr %0, ptr %5, align 8, !tbaa !41
  %8 = getelementptr inbounds nuw %"struct.nanobind::pointer_and_handle", ptr %4, i32 0, i32 0
  %9 = load ptr, ptr %8, align 8, !tbaa !2843
  %10 = getelementptr inbounds nuw %struct.Buffer, ptr %9, i32 0, i32 0
  %11 = getelementptr inbounds i32, ptr %10, i64 30
  br label %12

12:                                               ; preds = %12, %3
  %13 = phi ptr [ %10, %3 ], [ %14, %12 ]
  store i32 0, ptr %13, align 4, !tbaa !26
  %14 = getelementptr inbounds i32, ptr %13, i64 1
  %15 = icmp eq ptr %14, %11
  br i1 %15, label %16, label %12

16:                                               ; preds = %12
  ret void
}

; Function Attrs: mustprogress nounwind optsize uwtable
define internal noundef nonnull align 8 dereferenceable(16) ptr @_ZN8nanobind6detail11type_casterINS_18pointer_and_handleIZL28nanobind_init_test_eigen_extRNS_7module_EE6BufferEEiEcvOS6_Ev(ptr noundef nonnull align 8 dereferenceable(16) %0) #1 align 2 {
  %2 = alloca ptr, align 8
  store ptr %0, ptr %2, align 8, !tbaa !2838
  %3 = load ptr, ptr %2, align 8
  %4 = getelementptr inbounds nuw %"struct.nanobind::detail::type_caster.1435", ptr %3, i32 0, i32 0
  ret ptr %4
}

; Function Attrs: mustprogress nounwind optsize uwtable
define internal noundef zeroext i1 @_ZN8nanobind6detail11type_casterINS_18pointer_and_handleIZL28nanobind_init_test_eigen_extRNS_7module_EE6BufferEEiE11from_pythonENS_6handleEhPNS0_12cleanup_listE(ptr noundef nonnull align 8 dereferenceable(16) %0, ptr %1, i8 noundef zeroext %2, ptr noundef %3) #1 align 2 personality ptr @__gxx_personality_v0 {
  %5 = alloca i1, align 1
  %6 = alloca %"class.nanobind::handle", align 8
  %7 = alloca ptr, align 8
  %8 = alloca i8, align 1
  %9 = alloca ptr, align 8
  %10 = alloca %"struct.nanobind::detail::type_caster.1436", align 8
  %11 = alloca %"class.nanobind::handle", align 8
  %12 = alloca i32, align 4
  %13 = getelementptr inbounds nuw %"class.nanobind::handle", ptr %6, i32 0, i32 0
  store ptr %1, ptr %13, align 8
  store ptr %0, ptr %7, align 8, !tbaa !2838
  store i8 %2, ptr %8, align 1, !tbaa !30
  store ptr %3, ptr %9, align 8, !tbaa !143
  %14 = load ptr, ptr %7, align 8
  call void @llvm.lifetime.start.p0(i64 8, ptr %10) #25
  call void @llvm.memcpy.p0.p0.i64(ptr align 8 %11, ptr align 8 %6, i64 8, i1 false)
  %15 = load i8, ptr %8, align 1, !tbaa !30
  %16 = call noundef zeroext i8 @_ZN8nanobind6detail22flags_for_local_casterIPZL28nanobind_init_test_eigen_extRNS_7module_EE6BufferEEhh(i8 noundef zeroext %15) #26
  %17 = load ptr, ptr %9, align 8, !tbaa !143
  %18 = getelementptr inbounds nuw %"class.nanobind::handle", ptr %11, i32 0, i32 0
  %19 = load ptr, ptr %18, align 8
  %20 = call noundef zeroext i1 @_ZN8nanobind6detail16type_caster_baseIZL28nanobind_init_test_eigen_extRNS_7module_EE6BufferE11from_pythonENS_6handleEhPNS0_12cleanup_listE(ptr noundef nonnull align 8 dereferenceable(8) %10, ptr %19, i8 noundef zeroext %16, ptr noundef %17) #26
  br i1 %20, label %21, label %23

21:                                               ; preds = %4
  %22 = call noundef zeroext i1 @_ZNK8nanobind6detail16type_caster_baseIZL28nanobind_init_test_eigen_extRNS_7module_EE6BufferE8can_castIPS4_EEbv(ptr noundef nonnull align 8 dereferenceable(8) %10) #26
  br i1 %22, label %24, label %23

23:                                               ; preds = %21, %4
  store i1 false, ptr %5, align 1
  store i32 1, ptr %12, align 4
  br label %31

24:                                               ; preds = %21
  %25 = getelementptr inbounds nuw %"struct.nanobind::detail::type_caster.1435", ptr %14, i32 0, i32 0
  %26 = getelementptr inbounds nuw %"struct.nanobind::pointer_and_handle", ptr %25, i32 0, i32 1
  call void @llvm.memcpy.p0.p0.i64(ptr align 8 %26, ptr align 8 %6, i64 8, i1 false)
  %27 = invoke noundef ptr @_ZN8nanobind6detail16type_caster_baseIZL28nanobind_init_test_eigen_extRNS_7module_EE6BufferEcvPS4_Ev(ptr noundef nonnull align 8 dereferenceable(8) %10) #24
          to label %28 unwind label %33

28:                                               ; preds = %24
  %29 = getelementptr inbounds nuw %"struct.nanobind::detail::type_caster.1435", ptr %14, i32 0, i32 0
  %30 = getelementptr inbounds nuw %"struct.nanobind::pointer_and_handle", ptr %29, i32 0, i32 0
  store ptr %27, ptr %30, align 8, !tbaa !2840
  store i1 true, ptr %5, align 1
  store i32 1, ptr %12, align 4
  br label %31

31:                                               ; preds = %28, %23
  call void @llvm.lifetime.end.p0(i64 8, ptr %10) #25
  %32 = load i1, ptr %5, align 1
  ret i1 %32

33:                                               ; preds = %24
  %34 = landingpad { ptr, i32 }
          catch ptr null
  %35 = extractvalue { ptr, i32 } %34, 0
  call void @__clang_call_terminate(ptr %35) #27
  unreachable
}

; Function Attrs: alwaysinline mustprogress nounwind optsize uwtable
define linkonce_odr hidden void @_ZN8nanobind6handleC2EPK7_object(ptr noundef nonnull align 8 dereferenceable(8) %0, ptr noundef %1) unnamed_addr #7 comdat align 2 {
  %3 = alloca ptr, align 8
  %4 = alloca ptr, align 8
  store ptr %0, ptr %3, align 8, !tbaa !20
  store ptr %1, ptr %4, align 8, !tbaa !14
  %5 = load ptr, ptr %3, align 8
  %6 = getelementptr inbounds nuw %"class.nanobind::handle", ptr %5, i32 0, i32 0
  %7 = load ptr, ptr %4, align 8, !tbaa !14
  store ptr %7, ptr %6, align 8, !tbaa !22
  ret void
}

; Function Attrs: alwaysinline mustprogress nounwind optsize uwtable
define internal noundef nonnull align 8 dereferenceable(16) ptr @_ZN8nanobind6detail5tupleIJNS0_11type_casterINS_18pointer_and_handleIZL28nanobind_init_test_eigen_extRNS_7module_EE6BufferEEiEEEE3getILm0EEERDav(ptr noundef nonnull align 8 dereferenceable(16) %0) #7 align 2 {
  %2 = alloca ptr, align 8
  store ptr %0, ptr %2, align 8, !tbaa !2836
  %3 = load ptr, ptr %2, align 8
  %4 = getelementptr inbounds nuw %"struct.nanobind::detail::tuple.1434", ptr %3, i32 0, i32 0
  ret ptr %4
}

; Function Attrs: mustprogress nounwind optsize uwtable
define internal void @_ZN8nanobind6detail5tupleIJNS0_11type_casterINS_18pointer_and_handleIZL28nanobind_init_test_eigen_extRNS_7module_EE6BufferEEiEEEEC2Ev(ptr noundef nonnull align 8 dereferenceable(16) %0) unnamed_addr #1 align 2 {
  %2 = alloca ptr, align 8
  store ptr %0, ptr %2, align 8, !tbaa !2836
  %3 = load ptr, ptr %2, align 8
  %4 = getelementptr inbounds nuw %"struct.nanobind::detail::tuple.1434", ptr %3, i32 0, i32 0
  call void @_ZN8nanobind6detail11type_casterINS_18pointer_and_handleIZL28nanobind_init_test_eigen_extRNS_7module_EE6BufferEEiEC2Ev(ptr noundef nonnull align 8 dereferenceable(16) %4) #26
  ret void
}

; Function Attrs: alwaysinline mustprogress optsize uwtable
define internal noundef ptr @_ZZN8nanobind6detail11func_createILb0ELb1EZNS_4initIJEE7executeINS_6class_IZL28nanobind_init_test_eigen_extRNS_7module_EE6BufferJEEEJEEEvRT_DpRKT0_EUlNS_18pointer_and_handleIS8_EEE_vJSH_EJLm0EEJNS_5scopeENS_4nameENS_9is_methodEEEEP7_objectOT1_PFT2_DpT3_ESt16integer_sequenceImJXspT4_EEEDpRKT5_ENKUlPvPSN_PhNS_9rv_policyEPNS0_12cleanup_listEE_clES11_S12_S13_S14_S16_(ptr noundef nonnull align 1 dereferenceable(1) %0, ptr noundef %1, ptr noundef %2, ptr noundef %3, i32 noundef %4, ptr noundef %5) #5 align 2 {
  %7 = alloca ptr, align 8
  %8 = alloca ptr, align 8
  %9 = alloca ptr, align 8
  %10 = alloca ptr, align 8
  %11 = alloca ptr, align 8
  %12 = alloca i32, align 4
  %13 = alloca ptr, align 8
  %14 = alloca ptr, align 8
  %15 = alloca %"struct.nanobind::detail::tuple.1434", align 8
  %16 = alloca %"class.nanobind::handle", align 8
  %17 = alloca i32, align 4
  %18 = alloca ptr, align 8
  %19 = alloca %"struct.nanobind::pointer_and_handle", align 8
  store ptr %0, ptr %8, align 8, !tbaa !41
  store ptr %1, ptr %9, align 8, !tbaa !41
  store ptr %2, ptr %10, align 8, !tbaa !141
  store ptr %3, ptr %11, align 8, !tbaa !39
  store i32 %4, ptr %12, align 4, !tbaa !31
  store ptr %5, ptr %13, align 8, !tbaa !143
  call void @llvm.lifetime.start.p0(i64 8, ptr %14) #25
  %20 = load ptr, ptr %9, align 8, !tbaa !41
  store ptr %20, ptr %14, align 8, !tbaa !2832
  call void @llvm.lifetime.start.p0(i64 16, ptr %15) #25
  call void @_ZN8nanobind6detail5tupleIJNS0_11type_casterINS_18pointer_and_handleIZL28nanobind_init_test_eigen_extRNS_7module_EE6BufferEEiEEEEC2Ev(ptr noundef nonnull align 8 dereferenceable(16) %15) #26
  %21 = call noundef nonnull align 8 dereferenceable(16) ptr @_ZN8nanobind6detail5tupleIJNS0_11type_casterINS_18pointer_and_handleIZL28nanobind_init_test_eigen_extRNS_7module_EE6BufferEEiEEEE3getILm0EEERDav(ptr noundef nonnull align 8 dereferenceable(16) %15) #24
  %22 = load ptr, ptr %10, align 8, !tbaa !141
  %23 = getelementptr inbounds nuw ptr, ptr %22, i64 0
  %24 = load ptr, ptr %23, align 8, !tbaa !14
  call void @_ZN8nanobind6handleC2EPK7_object(ptr noundef nonnull align 8 dereferenceable(8) %16, ptr noundef %24) #24
  %25 = load ptr, ptr %11, align 8, !tbaa !39
  %26 = getelementptr inbounds nuw i8, ptr %25, i64 0
  %27 = load i8, ptr %26, align 1, !tbaa !30
  %28 = load ptr, ptr %13, align 8, !tbaa !143
  %29 = getelementptr inbounds nuw %"class.nanobind::handle", ptr %16, i32 0, i32 0
  %30 = load ptr, ptr %29, align 8
  %31 = call noundef zeroext i1 @_ZN8nanobind6detail11type_casterINS_18pointer_and_handleIZL28nanobind_init_test_eigen_extRNS_7module_EE6BufferEEiE11from_pythonENS_6handleEhPNS0_12cleanup_listE(ptr noundef nonnull align 8 dereferenceable(16) %21, ptr %30, i8 noundef zeroext %27, ptr noundef %28) #26
  br i1 %31, label %33, label %32

32:                                               ; preds = %6
  store ptr inttoptr (i64 1 to ptr), ptr %7, align 8
  store i32 1, ptr %17, align 4
  br label %43

33:                                               ; preds = %6
  call void @llvm.lifetime.start.p0(i64 8, ptr %18) #25
  %34 = load ptr, ptr %14, align 8, !tbaa !2832
  %35 = call noundef nonnull align 8 dereferenceable(16) ptr @_ZN8nanobind6detail5tupleIJNS0_11type_casterINS_18pointer_and_handleIZL28nanobind_init_test_eigen_extRNS_7module_EE6BufferEEiEEEE3getILm0EEERDav(ptr noundef nonnull align 8 dereferenceable(16) %15) #24
  %36 = call noundef nonnull align 8 dereferenceable(16) ptr @_ZN8nanobind6detail11type_casterINS_18pointer_and_handleIZL28nanobind_init_test_eigen_extRNS_7module_EE6BufferEEiEcvOS6_Ev(ptr noundef nonnull align 8 dereferenceable(16) %35) #24
  call void @llvm.memcpy.p0.p0.i64(ptr align 8 %19, ptr align 8 %36, i64 16, i1 false)
  %37 = getelementptr inbounds nuw { ptr, ptr }, ptr %19, i32 0, i32 0
  %38 = load ptr, ptr %37, align 8
  %39 = getelementptr inbounds nuw { ptr, ptr }, ptr %19, i32 0, i32 1
  %40 = load ptr, ptr %39, align 8
  call void @_ZZN8nanobind4initIJEE7executeINS_6class_IZL28nanobind_init_test_eigen_extRNS_7module_EE6BufferJEEEJEEEvRT_DpRKT0_ENKUlNS_18pointer_and_handleIS6_EEE_clESF_(ptr noundef nonnull align 1 dereferenceable(1) %34, ptr %38, ptr %40) #24
  store ptr @_Py_NoneStruct, ptr %18, align 8, !tbaa !14
  %41 = load ptr, ptr %18, align 8, !tbaa !14
  call void @_ZL10_Py_INCREFP7_object(ptr noundef %41) #24
  %42 = load ptr, ptr %18, align 8, !tbaa !14
  store ptr %42, ptr %7, align 8
  store i32 1, ptr %17, align 4
  call void @llvm.lifetime.end.p0(i64 8, ptr %18) #25
  br label %43

43:                                               ; preds = %33, %32
  call void @llvm.lifetime.end.p0(i64 16, ptr %15) #25
  call void @llvm.lifetime.end.p0(i64 8, ptr %14) #25
  %44 = load ptr, ptr %7, align 8
  ret ptr %44
}

; Function Attrs: inlinehint mustprogress optsize uwtable
define internal noundef ptr @_ZZN8nanobind6detail11func_createILb0ELb1EZNS_4initIJEE7executeINS_6class_IZL28nanobind_init_test_eigen_extRNS_7module_EE6BufferJEEEJEEEvRT_DpRKT0_EUlNS_18pointer_and_handleIS8_EEE_vJSH_EJLm0EEJNS_5scopeENS_4nameENS_9is_methodEEEEP7_objectOT1_PFT2_DpT3_ESt16integer_sequenceImJXspT4_EEEDpRKT5_ENUlPvPSN_PhNS_9rv_policyEPNS0_12cleanup_listEE_8__invokeES11_S12_S13_S14_S16_(ptr noundef %0, ptr noundef %1, ptr noundef %2, i32 noundef %3, ptr noundef %4) #10 align 2 {
  %6 = alloca ptr, align 8
  %7 = alloca ptr, align 8
  %8 = alloca ptr, align 8
  %9 = alloca i32, align 4
  %10 = alloca ptr, align 8
  %11 = alloca %class.anon.1432, align 1
  store ptr %0, ptr %6, align 8, !tbaa !41
  store ptr %1, ptr %7, align 8, !tbaa !141
  store ptr %2, ptr %8, align 8, !tbaa !39
  store i32 %3, ptr %9, align 4, !tbaa !31
  store ptr %4, ptr %10, align 8, !tbaa !143
  %12 = load ptr, ptr %6, align 8, !tbaa !41
  %13 = load ptr, ptr %7, align 8, !tbaa !141
  %14 = load ptr, ptr %8, align 8, !tbaa !39
  %15 = load i32, ptr %9, align 4, !tbaa !31
  %16 = load ptr, ptr %10, align 8, !tbaa !143
  %17 = call noundef ptr @_ZZN8nanobind6detail11func_createILb0ELb1EZNS_4initIJEE7executeINS_6class_IZL28nanobind_init_test_eigen_extRNS_7module_EE6BufferJEEEJEEEvRT_DpRKT0_EUlNS_18pointer_and_handleIS8_EEE_vJSH_EJLm0EEJNS_5scopeENS_4nameENS_9is_methodEEEEP7_objectOT1_PFT2_DpT3_ESt16integer_sequenceImJXspT4_EEEDpRKT5_ENKUlPvPSN_PhNS_9rv_policyEPNS0_12cleanup_listEE_clES11_S12_S13_S14_S16_(ptr noundef nonnull align 1 dereferenceable(1) %11, ptr noundef %12, ptr noundef %13, ptr noundef %14, i32 noundef %15, ptr noundef %16) #24
  ret ptr %17
}